target datalayout = "e-m:e-p270:32:32-p271:32:32-p272:64:64-i64:64-i128:128-f80:128-n8:16:32:64-S128"
target triple = "x86_64-pc-linux-gnu"

%class.symbol = type { ptr }
%struct.builtin_name = type { i32, %class.symbol }
%class.vector.45 = type { ptr }

@.str.2 = private unnamed_addr constant [5 x i8] c"Real\00", align 1
@.str.3 = private unnamed_addr constant [4 x i8] c"Int\00", align 1
@.str.51 = private unnamed_addr constant [4 x i8] c"NRA\00", align 1
@.str.52 = private unnamed_addr constant [7 x i8] c"QF_NRA\00", align 1
@.str.53 = private unnamed_addr constant [9 x i8] c"QF_UFNRA\00", align 1

; Function Attrs: mustprogress uwtable
define linkonce_odr hidden noundef nonnull align 8 dereferenceable(8) ptr @_ZN6vectorI12builtin_nameLb0EjE9push_backEOS0_(ptr noundef nonnull align 8 dereferenceable(8) %0, ptr noundef nonnull align 8 dereferenceable(16) %1) #4 comdat align 2 {
  %3 = alloca ptr, align 8
  %4 = alloca ptr, align 8
  store ptr %0, ptr %3, align 8, !tbaa !199
  store ptr %1, ptr %4, align 8, !tbaa !201
  %5 = load ptr, ptr %3, align 8
  %6 = getelementptr inbounds nuw %class.vector.45, ptr %5, i32 0, i32 0
  %7 = load ptr, ptr %6, align 8, !tbaa !203
  %8 = icmp eq ptr %7, null
  br i1 %8, label %19, label %9

9:                                                ; preds = %2
  %10 = getelementptr inbounds nuw %class.vector.45, ptr %5, i32 0, i32 0
  %11 = load ptr, ptr %10, align 8, !tbaa !203
  %12 = getelementptr inbounds i32, ptr %11, i64 -1
  %13 = load i32, ptr %12, align 4, !tbaa !36
  %14 = getelementptr inbounds nuw %class.vector.45, ptr %5, i32 0, i32 0
  %15 = load ptr, ptr %14, align 8, !tbaa !203
  %16 = getelementptr inbounds i32, ptr %15, i64 -2
  %17 = load i32, ptr %16, align 4, !tbaa !36
  %18 = icmp eq i32 %13, %17
  br i1 %18, label %19, label %20

19:                                               ; preds = %9, %2
  call void @_ZN6vectorI12builtin_nameLb0EjE13expand_vectorEv(ptr noundef nonnull align 8 dereferenceable(8) %5)
  br label %20

20:                                               ; preds = %19, %9
  %21 = getelementptr inbounds nuw %class.vector.45, ptr %5, i32 0, i32 0
  %22 = load ptr, ptr %21, align 8, !tbaa !203
  %23 = getelementptr inbounds nuw %class.vector.45, ptr %5, i32 0, i32 0
  %24 = load ptr, ptr %23, align 8, !tbaa !203
  %25 = getelementptr inbounds i32, ptr %24, i64 -1
  %26 = load i32, ptr %25, align 4, !tbaa !36
  %27 = zext i32 %26 to i64
  %28 = getelementptr inbounds nuw %struct.builtin_name, ptr %22, i64 %27
  %29 = load ptr, ptr %4, align 8, !tbaa !201
  call void @llvm.memcpy.p0.p0.i64(ptr align 8 %28, ptr align 8 %29, i64 16, i1 false), !tbaa.struct !205
  %30 = getelementptr inbounds nuw %class.vector.45, ptr %5, i32 0, i32 0
  %31 = load ptr, ptr %30, align 8, !tbaa !203
  %32 = getelementptr inbounds i32, ptr %31, i64 -1
  %33 = load i32, ptr %32, align 4, !tbaa !36
  %34 = add i32 %33, 1
  store i32 %34, ptr %32, align 4, !tbaa !36
  ret ptr %5
}

; Function Attrs: mustprogress uwtable
define linkonce_odr hidden void @_ZN12builtin_nameC2EPKci(ptr noundef nonnull align 8 dereferenceable(16) %0, ptr noundef %1, i32 noundef %2) unnamed_addr #4 comdat align 2 {
  %4 = alloca ptr, align 8
  %5 = alloca ptr, align 8
  %6 = alloca i32, align 4
  store ptr %0, ptr %4, align 8, !tbaa !201
  store ptr %1, ptr %5, align 8, !tbaa !116
  store i32 %2, ptr %6, align 4, !tbaa !36
  %7 = load ptr, ptr %4, align 8
  %8 = getelementptr inbounds nuw %struct.builtin_name, ptr %7, i32 0, i32 0
  %9 = load i32, ptr %6, align 4, !tbaa !36
  store i32 %9, ptr %8, align 8, !tbaa !206
  %10 = getelementptr inbounds nuw %struct.builtin_name, ptr %7, i32 0, i32 1
  %11 = load ptr, ptr %5, align 8, !tbaa !116
  call void @_ZN6symbolC1EPKc(ptr noundef nonnull align 8 dereferenceable(8) %10, ptr noundef %11)
  ret void
}

; Function Attrs: mustprogress uwtable
define hidden void @_ZN17arith_decl_plugin14get_sort_namesER7svectorI12builtin_namejERK6symbol(ptr noundef nonnull align 8 dereferenceable(441) %0, ptr noundef nonnull align 8 dereferenceable(8) %1, ptr noundef nonnull align 8 dereferenceable(8) %2) unnamed_addr #4 align 2 {
  %4 = alloca ptr, align 8
  %5 = alloca ptr, align 8
  %6 = alloca ptr, align 8
  %7 = alloca %struct.builtin_name, align 8
  %8 = alloca %struct.builtin_name, align 8
  %9 = alloca %struct.builtin_name, align 8
  store ptr %0, ptr %4, align 8, !tbaa !3
  store ptr %1, ptr %5, align 8, !tbaa !197
  store ptr %2, ptr %6, align 8, !tbaa !49
  %10 = load ptr, ptr %6, align 8, !tbaa !49
  %11 = call noundef zeroext i1 @_ZeqRK6symbolPKc(ptr noundef nonnull align 8 dereferenceable(8) %10, ptr noundef @.str.51)
  br i1 %11, label %18, label %12

12:                                               ; preds = %3
  %13 = load ptr, ptr %6, align 8, !tbaa !49
  %14 = call noundef zeroext i1 @_ZeqRK6symbolPKc(ptr noundef nonnull align 8 dereferenceable(8) %13, ptr noundef @.str.52)
  br i1 %14, label %18, label %15

15:                                               ; preds = %12
  %16 = load ptr, ptr %6, align 8, !tbaa !49
  %17 = call noundef zeroext i1 @_ZeqRK6symbolPKc(ptr noundef nonnull align 8 dereferenceable(8) %16, ptr noundef @.str.53)
  br i1 %17, label %18, label %21

18:                                               ; preds = %15, %12, %3
  %19 = load ptr, ptr %5, align 8, !tbaa !197
  call void @llvm.lifetime.start.p0(i64 16, ptr %7) #3
  call void @_ZN12builtin_nameC2EPKci(ptr noundef nonnull align 8 dereferenceable(16) %7, ptr noundef @.str.2, i32 noundef 0)
  %20 = call noundef nonnull align 8 dereferenceable(8) ptr @_ZN6vectorI12builtin_nameLb0EjE9push_backEOS0_(ptr noundef nonnull align 8 dereferenceable(8) %19, ptr noundef nonnull align 8 dereferenceable(16) %7)
  call void @llvm.lifetime.end.p0(i64 16, ptr %7) #3
  br label %26

21:                                               ; preds = %15
  %22 = load ptr, ptr %5, align 8, !tbaa !197
  call void @llvm.lifetime.start.p0(i64 16, ptr %8) #3
  call void @_ZN12builtin_nameC2EPKci(ptr noundef nonnull align 8 dereferenceable(16) %8, ptr noundef @.str.3, i32 noundef 1)
  %23 = call noundef nonnull align 8 dereferenceable(8) ptr @_ZN6vectorI12builtin_nameLb0EjE9push_backEOS0_(ptr noundef nonnull align 8 dereferenceable(8) %22, ptr noundef nonnull align 8 dereferenceable(16) %8)
  call void @llvm.lifetime.end.p0(i64 16, ptr %8) #3
  %24 = load ptr, ptr %5, align 8, !tbaa !197
  call void @llvm.lifetime.start.p0(i64 16, ptr %9) #3
  call void @_ZN12builtin_nameC2EPKci(ptr noundef nonnull align 8 dereferenceable(16) %9, ptr noundef @.str.2, i32 noundef 0)
  %25 = call noundef nonnull align 8 dereferenceable(8) ptr @_ZN6vectorI12builtin_nameLb0EjE9push_backEOS0_(ptr noundef nonnull align 8 dereferenceable(8) %24, ptr noundef nonnull align 8 dereferenceable(16) %9)
  call void @llvm.lifetime.end.p0(i64 16, ptr %9) #3
  br label %26

26:                                               ; preds = %21, %18
  ret void
}