; Function Attrs: mustprogress uwtable
define hidden void @_ZN17arith_decl_plugin14get_sort_namesER7svectorI12builtin_namejERK6symbol(ptr nonnull readnone align 8 captures(none) %0, ptr noundef nonnull align 8 dereferenceable(8) %1, ptr noundef nonnull align 8 dereferenceable(8) %2) unnamed_addr #3 align 2 {
  %4 = alloca %struct.builtin_name, align 8
  %5 = alloca %struct.builtin_name, align 8
  %6 = alloca %struct.builtin_name, align 8
  %7 = tail call noundef zeroext i1 @_ZeqRK6symbolPKc(ptr noundef nonnull align 8 dereferenceable(8) %2, ptr noundef nonnull @.str.51)
  br i1 %7, label %12, label %8

8:                                                ; preds = %3
  %9 = tail call noundef zeroext i1 @_ZeqRK6symbolPKc(ptr noundef nonnull align 8 dereferenceable(8) %2, ptr noundef nonnull @.str.52)
  br i1 %9, label %12, label %10

10:                                               ; preds = %8
  %11 = tail call noundef zeroext i1 @_ZeqRK6symbolPKc(ptr noundef nonnull align 8 dereferenceable(8) %2, ptr noundef nonnull @.str.53)
  br i1 %11, label %12, label %31

12:                                               ; preds = %10, %8, %3
  call void @llvm.lifetime.start.p0(i64 16, ptr nonnull %4) #24
  store i32 0, ptr %4, align 8, !tbaa !200
  %13 = getelementptr inbounds nuw i8, ptr %4, i64 8
  call void @_ZN6symbolC1EPKc(ptr noundef nonnull align 8 dereferenceable(8) %13, ptr noundef nonnull @.str.2)
  %14 = load ptr, ptr %1, align 8, !tbaa !202
  %15 = icmp eq ptr %14, null
  br i1 %15, label %22, label %16

16:                                               ; preds = %12
  %17 = getelementptr inbounds i8, ptr %14, i64 -4
  %18 = load i32, ptr %17, align 4, !tbaa !40
  %19 = getelementptr inbounds i8, ptr %14, i64 -8
  %20 = load i32, ptr %19, align 4, !tbaa !40
  %21 = icmp eq i32 %18, %20
  br i1 %21, label %22, label %_ZN6vectorI12builtin_nameLb0EjE9push_backEOS0_.exit

22:                                               ; preds = %16, %12
  call void @_ZN6vectorI12builtin_nameLb0EjE13expand_vectorEv(ptr noundef nonnull align 8 dereferenceable(8) %1)
  %.pre.i = load ptr, ptr %1, align 8, !tbaa !202
  %.phi.trans.insert.i = getelementptr inbounds i8, ptr %.pre.i, i64 -4
  %.pre2.i = load i32, ptr %.phi.trans.insert.i, align 4, !tbaa !40
  br label %_ZN6vectorI12builtin_nameLb0EjE9push_backEOS0_.exit

_ZN6vectorI12builtin_nameLb0EjE9push_backEOS0_.exit: ; preds = %16, %22
  %23 = phi i32 [ %.pre2.i, %22 ], [ %18, %16 ]
  %24 = phi ptr [ %.pre.i, %22 ], [ %14, %16 ]
  %25 = zext i32 %23 to i64
  %26 = getelementptr inbounds nuw %struct.builtin_name, ptr %24, i64 %25
  call void @llvm.memcpy.p0.p0.i64(ptr noundef nonnull align 8 dereferenceable(16) %26, ptr noundef nonnull align 8 dereferenceable(16) %4, i64 16, i1 false), !tbaa.struct !205
  %27 = load ptr, ptr %1, align 8, !tbaa !202
  %28 = getelementptr inbounds i8, ptr %27, i64 -4
  %29 = load i32, ptr %28, align 4, !tbaa !40
  %30 = add i32 %29, 1
  store i32 %30, ptr %28, align 4, !tbaa !40
  call void @llvm.lifetime.end.p0(i64 16, ptr nonnull %4) #24
  br label %68

31:                                               ; preds = %10
  call void @llvm.lifetime.start.p0(i64 16, ptr nonnull %5) #24
  store i32 1, ptr %5, align 8, !tbaa !200
  %32 = getelementptr inbounds nuw i8, ptr %5, i64 8
  call void @_ZN6symbolC1EPKc(ptr noundef nonnull align 8 dereferenceable(8) %32, ptr noundef nonnull @.str.3)
  %33 = load ptr, ptr %1, align 8, !tbaa !202
  %34 = icmp eq ptr %33, null
  br i1 %34, label %41, label %35

35:                                               ; preds = %31
  %36 = getelementptr inbounds i8, ptr %33, i64 -4
  %37 = load i32, ptr %36, align 4, !tbaa !40
  %38 = getelementptr inbounds i8, ptr %33, i64 -8
  %39 = load i32, ptr %38, align 4, !tbaa !40
  %40 = icmp eq i32 %37, %39
  br i1 %40, label %41, label %_ZN6vectorI12builtin_nameLb0EjE9push_backEOS0_.exit9

41:                                               ; preds = %35, %31
  call void @_ZN6vectorI12builtin_nameLb0EjE13expand_vectorEv(ptr noundef nonnull align 8 dereferenceable(8) %1)
  %.pre.i6 = load ptr, ptr %1, align 8, !tbaa !202
  %.phi.trans.insert.i7 = getelementptr inbounds i8, ptr %.pre.i6, i64 -4
  %.pre2.i8 = load i32, ptr %.phi.trans.insert.i7, align 4, !tbaa !40
  br label %_ZN6vectorI12builtin_nameLb0EjE9push_backEOS0_.exit9

_ZN6vectorI12builtin_nameLb0EjE9push_backEOS0_.exit9: ; preds = %35, %41
  %42 = phi i32 [ %.pre2.i8, %41 ], [ %37, %35 ]
  %43 = phi ptr [ %.pre.i6, %41 ], [ %33, %35 ]
  %44 = zext i32 %42 to i64
  %45 = getelementptr inbounds nuw %struct.builtin_name, ptr %43, i64 %44
  call void @llvm.memcpy.p0.p0.i64(ptr noundef nonnull align 8 dereferenceable(16) %45, ptr noundef nonnull align 8 dereferenceable(16) %5, i64 16, i1 false), !tbaa.struct !205
  %46 = load ptr, ptr %1, align 8, !tbaa !202
  %47 = getelementptr inbounds i8, ptr %46, i64 -4
  %48 = load i32, ptr %47, align 4, !tbaa !40
  %49 = add i32 %48, 1
  store i32 %49, ptr %47, align 4, !tbaa !40
  call void @llvm.lifetime.end.p0(i64 16, ptr nonnull %5) #24
  call void @llvm.lifetime.start.p0(i64 16, ptr nonnull %6) #24
  store i32 0, ptr %6, align 8, !tbaa !200
  %50 = getelementptr inbounds nuw i8, ptr %6, i64 8
  call void @_ZN6symbolC1EPKc(ptr noundef nonnull align 8 dereferenceable(8) %50, ptr noundef nonnull @.str.2)
  %51 = load ptr, ptr %1, align 8, !tbaa !202
  %52 = icmp eq ptr %51, null
  br i1 %52, label %59, label %53

53:                                               ; preds = %_ZN6vectorI12builtin_nameLb0EjE9push_backEOS0_.exit9
  %54 = getelementptr inbounds i8, ptr %51, i64 -4
  %55 = load i32, ptr %54, align 4, !tbaa !40
  %56 = getelementptr inbounds i8, ptr %51, i64 -8
  %57 = load i32, ptr %56, align 4, !tbaa !40
  %58 = icmp eq i32 %55, %57
  br i1 %58, label %59, label %_ZN6vectorI12builtin_nameLb0EjE9push_backEOS0_.exit13

59:                                               ; preds = %53, %_ZN6vectorI12builtin_nameLb0EjE9push_backEOS0_.exit9
  call void @_ZN6vectorI12builtin_nameLb0EjE13expand_vectorEv(ptr noundef nonnull align 8 dereferenceable(8) %1)
  %.pre.i10 = load ptr, ptr %1, align 8, !tbaa !202
  %.phi.trans.insert.i11 = getelementptr inbounds i8, ptr %.pre.i10, i64 -4
  %.pre2.i12 = load i32, ptr %.phi.trans.insert.i11, align 4, !tbaa !40
  br label %_ZN6vectorI12builtin_nameLb0EjE9push_backEOS0_.exit13

_ZN6vectorI12builtin_nameLb0EjE9push_backEOS0_.exit13: ; preds = %53, %59
  %60 = phi i32 [ %.pre2.i12, %59 ], [ %55, %53 ]
  %61 = phi ptr [ %.pre.i10, %59 ], [ %51, %53 ]
  %62 = zext i32 %60 to i64
  %63 = getelementptr inbounds nuw %struct.builtin_name, ptr %61, i64 %62
  call void @llvm.memcpy.p0.p0.i64(ptr noundef nonnull align 8 dereferenceable(16) %63, ptr noundef nonnull align 8 dereferenceable(16) %6, i64 16, i1 false), !tbaa.struct !205
  %64 = load ptr, ptr %1, align 8, !tbaa !202
  %65 = getelementptr inbounds i8, ptr %64, i64 -4
  %66 = load i32, ptr %65, align 4, !tbaa !40
  %67 = add i32 %66, 1
  store i32 %67, ptr %65, align 4, !tbaa !40
  call void @llvm.lifetime.end.p0(i64 16, ptr nonnull %6) #24
  br label %68

68:                                               ; preds = %_ZN6vectorI12builtin_nameLb0EjE9push_backEOS0_.exit13, %_ZN6vectorI12builtin_nameLb0EjE9push_backEOS0_.exit
  ret void
}